target datalayout = "e-m:e-p270:32:32-p271:32:32-p272:64:64-i64:64-i128:128-f80:128-n8:16:32:64-S128"
target triple = "x86_64-pc-linux-gnu"

%"class.CPUPerformanceInterface::CPUPerformance" = type { %struct.CPUPerfCounters }
%struct.CPUPerfCounters = type { i32, %"struct.os::Linux::CPUPerfTicks", ptr }
%"struct.os::Linux::CPUPerfTicks" = type { i64, i64, i64, i64, i8 }

; Function Attrs: mustprogress nounwind uwtable
define hidden noundef i32 @_ZN23CPUPerformanceInterface14CPUPerformance22cpu_load_total_processEPd(ptr noundef nonnull align 8 dereferenceable(56) %0, ptr noundef %1) #1 align 2 {
  %3 = alloca i32, align 4
  %4 = alloca ptr, align 8
  %5 = alloca ptr, align 8
  %6 = alloca double, align 8
  %7 = alloca double, align 8
  store ptr %0, ptr %4, align 8
  store ptr %1, ptr %5, align 8
  %8 = load ptr, ptr %4, align 8
  %9 = getelementptr inbounds %"class.CPUPerformanceInterface::CPUPerformance", ptr %8, i32 0, i32 0
  %10 = call noundef double @_ZL12get_cpu_loadiP15CPUPerfCountersPd13CpuLoadTarget(i32 noundef -1, ptr noundef %9, ptr noundef %7, i32 noundef 0)
  store double %10, ptr %6, align 8
  %11 = load double, ptr %6, align 8
  %12 = fcmp olt double %11, 0.000000e+00
  br i1 %12, label %13, label %15

13:                                               ; preds = %2
  %14 = load ptr, ptr %5, align 8
  store double 0.000000e+00, ptr %14, align 8
  store i32 -1, ptr %3, align 4
  br label %20

15:                                               ; preds = %2
  %16 = load double, ptr %6, align 8
  %17 = load double, ptr %7, align 8
  %18 = fadd double %16, %17
  %19 = load ptr, ptr %5, align 8
  store double %18, ptr %19, align 8
  store i32 0, ptr %3, align 4
  br label %20

20:                                               ; preds = %15, %13
  %21 = load i32, ptr %3, align 4
  ret i32 %21
}