; Function Attrs: mustprogress nounwind uwtable
define hidden noundef range(i32 -1, 1) i32 @_ZN23CPUPerformanceInterface14CPUPerformance22cpu_load_total_processEPd(ptr noundef nonnull align 8 dereferenceable(56) %0, ptr nocapture noundef writeonly %1) local_unnamed_addr #0 align 2 {
  %3 = alloca double, align 8
  %4 = call fastcc noundef double @_ZL12get_cpu_loadiP15CPUPerfCountersPd13CpuLoadTarget(i32 noundef -1, ptr noundef nonnull %0, ptr noundef nonnull %3, i32 noundef 0)
  %5 = fcmp olt double %4, 0.000000e+00
  %6 = load double, ptr %3, align 8
  %7 = fadd double %4, %6
  %storemerge = select i1 %5, double 0.000000e+00, double %7
  %.0 = sext i1 %5 to i32
  store double %storemerge, ptr %1, align 8
  ret i32 %.0
}